target datalayout = "e-m:e-p270:32:32-p271:32:32-p272:64:64-i64:64-i128:128-f80:128-n8:16:32:64-S128"
target triple = "x86_64-pc-linux-gnu"

%struct.ImVec4 = type { float, float, float, float }
%struct.ImVector = type { i32, i32, ptr }
%struct.ImDrawList = type { %struct.ImVector.0, %struct.ImVector.1, %struct.ImVector.2, i32, i32, ptr, ptr, ptr, %struct.ImVector, %struct.ImDrawCmdHeader, %struct.ImDrawListSplitter, %struct.ImVector.4, %struct.ImVector.5, %struct.ImVector.6, float, ptr }
%struct.ImVector.0 = type { i32, i32, ptr }
%struct.ImVector.1 = type { i32, i32, ptr }
%struct.ImVector.2 = type { i32, i32, ptr }
%struct.ImDrawCmdHeader = type <{ %struct.ImVec4, i64, i32, [4 x i8] }>
%struct.ImDrawListSplitter = type { i32, i32, %struct.ImVector.3 }
%struct.ImVector.3 = type { i32, i32, ptr }
%struct.ImVector.4 = type { i32, i32, ptr }
%struct.ImVector.5 = type { i32, i32, ptr }
%struct.ImVector.6 = type { i32, i32, ptr }

; Function Attrs: inlinehint mustprogress nounwind uwtable
define linkonce_odr void @_ZN8ImVectorI13ImDrawChannelED2Ev(ptr noundef nonnull align 8 dereferenceable(16) %0) unnamed_addr #7 comdat align 2 personality ptr @__gxx_personality_v0 {
  %2 = alloca ptr, align 8
  store ptr %0, ptr %2, align 8, !tbaa !256
  %3 = load ptr, ptr %2, align 8
  %4 = getelementptr inbounds nuw %struct.ImVector.3, ptr %3, i32 0, i32 2
  %5 = load ptr, ptr %4, align 8, !tbaa !258
  %6 = icmp ne ptr %5, null
  br i1 %6, label %7, label %11

7:                                                ; preds = %1
  %8 = getelementptr inbounds nuw %struct.ImVector.3, ptr %3, i32 0, i32 2
  %9 = load ptr, ptr %8, align 8, !tbaa !258
  invoke void @_ZN5ImGui7MemFreeEPv(ptr noundef %9)
          to label %10 unwind label %12

10:                                               ; preds = %7
  br label %11

11:                                               ; preds = %10, %1
  ret void

12:                                               ; preds = %7
  %13 = landingpad { ptr, i32 }
          catch ptr null
  %14 = extractvalue { ptr, i32 } %13, 0
  call void @__clang_call_terminate(ptr %14) #18
  unreachable
}

; Function Attrs: inlinehint mustprogress nounwind uwtable
define linkonce_odr void @_ZN8ImVectorI9ImDrawCmdED2Ev(ptr noundef nonnull align 8 dereferenceable(16) %0) unnamed_addr #7 comdat align 2 personality ptr @__gxx_personality_v0 {
  %2 = alloca ptr, align 8
  store ptr %0, ptr %2, align 8, !tbaa !63
  %3 = load ptr, ptr %2, align 8
  %4 = getelementptr inbounds nuw %struct.ImVector.0, ptr %3, i32 0, i32 2
  %5 = load ptr, ptr %4, align 8, !tbaa !67
  %6 = icmp ne ptr %5, null
  br i1 %6, label %7, label %11

7:                                                ; preds = %1
  %8 = getelementptr inbounds nuw %struct.ImVector.0, ptr %3, i32 0, i32 2
  %9 = load ptr, ptr %8, align 8, !tbaa !67
  invoke void @_ZN5ImGui7MemFreeEPv(ptr noundef %9)
          to label %10 unwind label %12

10:                                               ; preds = %7
  br label %11

11:                                               ; preds = %10, %1
  ret void

12:                                               ; preds = %7
  %13 = landingpad { ptr, i32 }
          catch ptr null
  %14 = extractvalue { ptr, i32 } %13, 0
  call void @__clang_call_terminate(ptr %14) #18
  unreachable
}

; Function Attrs: inlinehint mustprogress nounwind uwtable
define linkonce_odr void @_ZN8ImVectorItED2Ev(ptr noundef nonnull align 8 dereferenceable(16) %0) unnamed_addr #7 comdat align 2 personality ptr @__gxx_personality_v0 {
  %2 = alloca ptr, align 8
  store ptr %0, ptr %2, align 8, !tbaa !68
  %3 = load ptr, ptr %2, align 8
  %4 = getelementptr inbounds nuw %struct.ImVector.1, ptr %3, i32 0, i32 2
  %5 = load ptr, ptr %4, align 8, !tbaa !72
  %6 = icmp ne ptr %5, null
  br i1 %6, label %7, label %11

7:                                                ; preds = %1
  %8 = getelementptr inbounds nuw %struct.ImVector.1, ptr %3, i32 0, i32 2
  %9 = load ptr, ptr %8, align 8, !tbaa !72
  invoke void @_ZN5ImGui7MemFreeEPv(ptr noundef %9)
          to label %10 unwind label %12

10:                                               ; preds = %7
  br label %11

11:                                               ; preds = %10, %1
  ret void

12:                                               ; preds = %7
  %13 = landingpad { ptr, i32 }
          catch ptr null
  %14 = extractvalue { ptr, i32 } %13, 0
  call void @__clang_call_terminate(ptr %14) #18
  unreachable
}

; Function Attrs: inlinehint mustprogress nounwind uwtable
define linkonce_odr void @_ZN8ImVectorI10ImDrawVertED2Ev(ptr noundef nonnull align 8 dereferenceable(16) %0) unnamed_addr #7 comdat align 2 personality ptr @__gxx_personality_v0 {
  %2 = alloca ptr, align 8
  store ptr %0, ptr %2, align 8, !tbaa !73
  %3 = load ptr, ptr %2, align 8
  %4 = getelementptr inbounds nuw %struct.ImVector.2, ptr %3, i32 0, i32 2
  %5 = load ptr, ptr %4, align 8, !tbaa !77
  %6 = icmp ne ptr %5, null
  br i1 %6, label %7, label %11

7:                                                ; preds = %1
  %8 = getelementptr inbounds nuw %struct.ImVector.2, ptr %3, i32 0, i32 2
  %9 = load ptr, ptr %8, align 8, !tbaa !77
  invoke void @_ZN5ImGui7MemFreeEPv(ptr noundef %9)
          to label %10 unwind label %12

10:                                               ; preds = %7
  br label %11

11:                                               ; preds = %10, %1
  ret void

12:                                               ; preds = %7
  %13 = landingpad { ptr, i32 }
          catch ptr null
  %14 = extractvalue { ptr, i32 } %13, 0
  call void @__clang_call_terminate(ptr %14) #18
  unreachable
}

; Function Attrs: inlinehint mustprogress nounwind uwtable
define linkonce_odr void @_ZN8ImVectorI6ImVec2ED2Ev(ptr noundef nonnull align 8 dereferenceable(16) %0) unnamed_addr #7 comdat align 2 personality ptr @__gxx_personality_v0 {
  %2 = alloca ptr, align 8
  store ptr %0, ptr %2, align 8, !tbaa !36
  %3 = load ptr, ptr %2, align 8
  %4 = getelementptr inbounds nuw %struct.ImVector, ptr %3, i32 0, i32 2
  %5 = load ptr, ptr %4, align 8, !tbaa !40
  %6 = icmp ne ptr %5, null
  br i1 %6, label %7, label %11

7:                                                ; preds = %1
  %8 = getelementptr inbounds nuw %struct.ImVector, ptr %3, i32 0, i32 2
  %9 = load ptr, ptr %8, align 8, !tbaa !40
  invoke void @_ZN5ImGui7MemFreeEPv(ptr noundef %9)
          to label %10 unwind label %12

10:                                               ; preds = %7
  br label %11

11:                                               ; preds = %10, %1
  ret void

12:                                               ; preds = %7
  %13 = landingpad { ptr, i32 }
          catch ptr null
  %14 = extractvalue { ptr, i32 } %13, 0
  call void @__clang_call_terminate(ptr %14) #18
  unreachable
}

; Function Attrs: inlinehint mustprogress nounwind uwtable
define linkonce_odr void @_ZN18ImDrawListSplitterD2Ev(ptr noundef nonnull align 8 dereferenceable(24) %0) unnamed_addr #7 comdat align 2 personality ptr @__gxx_personality_v0 {
  %2 = alloca ptr, align 8
  store ptr %0, ptr %2, align 8, !tbaa !80
  %3 = load ptr, ptr %2, align 8
  invoke void @_ZN18ImDrawListSplitter15ClearFreeMemoryEv(ptr noundef nonnull align 8 dereferenceable(24) %3)
          to label %4 unwind label %6

4:                                                ; preds = %1
  %5 = getelementptr inbounds nuw %struct.ImDrawListSplitter, ptr %3, i32 0, i32 2
  call void @_ZN8ImVectorI13ImDrawChannelED2Ev(ptr noundef nonnull align 8 dereferenceable(16) %5) #17
  ret void

6:                                                ; preds = %1
  %7 = landingpad { ptr, i32 }
          catch ptr null
  %8 = extractvalue { ptr, i32 } %7, 0
  call void @__clang_call_terminate(ptr %8) #18
  unreachable
}

; Function Attrs: inlinehint mustprogress nounwind uwtable
define linkonce_odr void @_ZN8ImVectorI6ImVec4ED2Ev(ptr noundef nonnull align 8 dereferenceable(16) %0) unnamed_addr #7 comdat align 2 personality ptr @__gxx_personality_v0 {
  %2 = alloca ptr, align 8
  store ptr %0, ptr %2, align 8, !tbaa !82
  %3 = load ptr, ptr %2, align 8
  %4 = getelementptr inbounds nuw %struct.ImVector.4, ptr %3, i32 0, i32 2
  %5 = load ptr, ptr %4, align 8, !tbaa !86
  %6 = icmp ne ptr %5, null
  br i1 %6, label %7, label %11

7:                                                ; preds = %1
  %8 = getelementptr inbounds nuw %struct.ImVector.4, ptr %3, i32 0, i32 2
  %9 = load ptr, ptr %8, align 8, !tbaa !86
  invoke void @_ZN5ImGui7MemFreeEPv(ptr noundef %9)
          to label %10 unwind label %12

10:                                               ; preds = %7
  br label %11

11:                                               ; preds = %10, %1
  ret void

12:                                               ; preds = %7
  %13 = landingpad { ptr, i32 }
          catch ptr null
  %14 = extractvalue { ptr, i32 } %13, 0
  call void @__clang_call_terminate(ptr %14) #18
  unreachable
}

; Function Attrs: inlinehint mustprogress nounwind uwtable
define linkonce_odr void @_ZN8ImVectorIyED2Ev(ptr noundef nonnull align 8 dereferenceable(16) %0) unnamed_addr #7 comdat align 2 personality ptr @__gxx_personality_v0 {
  %2 = alloca ptr, align 8
  store ptr %0, ptr %2, align 8, !tbaa !87
  %3 = load ptr, ptr %2, align 8
  %4 = getelementptr inbounds nuw %struct.ImVector.5, ptr %3, i32 0, i32 2
  %5 = load ptr, ptr %4, align 8, !tbaa !91
  %6 = icmp ne ptr %5, null
  br i1 %6, label %7, label %11

7:                                                ; preds = %1
  %8 = getelementptr inbounds nuw %struct.ImVector.5, ptr %3, i32 0, i32 2
  %9 = load ptr, ptr %8, align 8, !tbaa !91
  invoke void @_ZN5ImGui7MemFreeEPv(ptr noundef %9)
          to label %10 unwind label %12

10:                                               ; preds = %7
  br label %11

11:                                               ; preds = %10, %1
  ret void

12:                                               ; preds = %7
  %13 = landingpad { ptr, i32 }
          catch ptr null
  %14 = extractvalue { ptr, i32 } %13, 0
  call void @__clang_call_terminate(ptr %14) #18
  unreachable
}

; Function Attrs: inlinehint mustprogress nounwind uwtable
define linkonce_odr void @_ZN8ImVectorIhED2Ev(ptr noundef nonnull align 8 dereferenceable(16) %0) unnamed_addr #7 comdat align 2 personality ptr @__gxx_personality_v0 {
  %2 = alloca ptr, align 8
  store ptr %0, ptr %2, align 8, !tbaa !92
  %3 = load ptr, ptr %2, align 8
  %4 = getelementptr inbounds nuw %struct.ImVector.6, ptr %3, i32 0, i32 2
  %5 = load ptr, ptr %4, align 8, !tbaa !96
  %6 = icmp ne ptr %5, null
  br i1 %6, label %7, label %11

7:                                                ; preds = %1
  %8 = getelementptr inbounds nuw %struct.ImVector.6, ptr %3, i32 0, i32 2
  %9 = load ptr, ptr %8, align 8, !tbaa !96
  invoke void @_ZN5ImGui7MemFreeEPv(ptr noundef %9)
          to label %10 unwind label %12

10:                                               ; preds = %7
  br label %11

11:                                               ; preds = %10, %1
  ret void

12:                                               ; preds = %7
  %13 = landingpad { ptr, i32 }
          catch ptr null
  %14 = extractvalue { ptr, i32 } %13, 0
  call void @__clang_call_terminate(ptr %14) #18
  unreachable
}

; Function Attrs: mustprogress nounwind uwtable
define void @_ZN10ImDrawListD2Ev(ptr noundef nonnull align 8 dereferenceable(216) %0) unnamed_addr #3 align 2 personality ptr @__gxx_personality_v0 {
  %2 = alloca ptr, align 8
  store ptr %0, ptr %2, align 8, !tbaa !43
  %3 = load ptr, ptr %2, align 8
  invoke void @_ZN10ImDrawList16_ClearFreeMemoryEv(ptr noundef nonnull align 8 dereferenceable(216) %3)
          to label %4 unwind label %13

4:                                                ; preds = %1
  %5 = getelementptr inbounds nuw %struct.ImDrawList, ptr %3, i32 0, i32 13
  call void @_ZN8ImVectorIhED2Ev(ptr noundef nonnull align 8 dereferenceable(16) %5) #17
  %6 = getelementptr inbounds nuw %struct.ImDrawList, ptr %3, i32 0, i32 12
  call void @_ZN8ImVectorIyED2Ev(ptr noundef nonnull align 8 dereferenceable(16) %6) #17
  %7 = getelementptr inbounds nuw %struct.ImDrawList, ptr %3, i32 0, i32 11
  call void @_ZN8ImVectorI6ImVec4ED2Ev(ptr noundef nonnull align 8 dereferenceable(16) %7) #17
  %8 = getelementptr inbounds nuw %struct.ImDrawList, ptr %3, i32 0, i32 10
  call void @_ZN18ImDrawListSplitterD2Ev(ptr noundef nonnull align 8 dereferenceable(24) %8) #17
  %9 = getelementptr inbounds nuw %struct.ImDrawList, ptr %3, i32 0, i32 8
  call void @_ZN8ImVectorI6ImVec2ED2Ev(ptr noundef nonnull align 8 dereferenceable(16) %9) #17
  %10 = getelementptr inbounds nuw %struct.ImDrawList, ptr %3, i32 0, i32 2
  call void @_ZN8ImVectorI10ImDrawVertED2Ev(ptr noundef nonnull align 8 dereferenceable(16) %10) #17
  %11 = getelementptr inbounds nuw %struct.ImDrawList, ptr %3, i32 0, i32 1
  call void @_ZN8ImVectorItED2Ev(ptr noundef nonnull align 8 dereferenceable(16) %11) #17
  %12 = getelementptr inbounds nuw %struct.ImDrawList, ptr %3, i32 0, i32 0
  call void @_ZN8ImVectorI9ImDrawCmdED2Ev(ptr noundef nonnull align 8 dereferenceable(16) %12) #17
  ret void

13:                                               ; preds = %1
  %14 = landingpad { ptr, i32 }
          catch ptr null
  %15 = extractvalue { ptr, i32 } %14, 0
  call void @__clang_call_terminate(ptr %15) #18
  unreachable
}