; Function Attrs: mustprogress nounwind uwtable
define void @_ZN10ImDrawListD2Ev(ptr noundef nonnull align 8 captures(none) dereferenceable(216) initializes((48, 56), (64, 80)) %0) unnamed_addr #11 align 2 personality ptr @__gxx_personality_v0 {
  invoke void @_ZN10ImDrawList16_ClearFreeMemoryEv(ptr noundef nonnull align 8 dereferenceable(216) %0)
          to label %2 unwind label %56

2:                                                ; preds = %1
  %3 = getelementptr inbounds nuw i8, ptr %0, i64 192
  %4 = load ptr, ptr %3, align 8, !tbaa !45
  %.not.i = icmp eq ptr %4, null
  br i1 %.not.i, label %_ZN8ImVectorIhED2Ev.exit, label %5

5:                                                ; preds = %2
  invoke void @_ZN5ImGui7MemFreeEPv(ptr noundef nonnull %4)
          to label %_ZN8ImVectorIhED2Ev.exit unwind label %6

6:                                                ; preds = %5
  %7 = landingpad { ptr, i32 }
          catch ptr null
  %8 = extractvalue { ptr, i32 } %7, 0
  tail call void @__clang_call_terminate(ptr %8) #43
  unreachable

_ZN8ImVectorIhED2Ev.exit:                         ; preds = %2, %5
  %9 = getelementptr inbounds nuw i8, ptr %0, i64 176
  %10 = load ptr, ptr %9, align 8, !tbaa !46
  %.not.i1 = icmp eq ptr %10, null
  br i1 %.not.i1, label %_ZN8ImVectorIyED2Ev.exit, label %11

11:                                               ; preds = %_ZN8ImVectorIhED2Ev.exit
  invoke void @_ZN5ImGui7MemFreeEPv(ptr noundef nonnull %10)
          to label %_ZN8ImVectorIyED2Ev.exit unwind label %12

12:                                               ; preds = %11
  %13 = landingpad { ptr, i32 }
          catch ptr null
  %14 = extractvalue { ptr, i32 } %13, 0
  tail call void @__clang_call_terminate(ptr %14) #43
  unreachable

_ZN8ImVectorIyED2Ev.exit:                         ; preds = %_ZN8ImVectorIhED2Ev.exit, %11
  %15 = getelementptr inbounds nuw i8, ptr %0, i64 160
  %16 = load ptr, ptr %15, align 8, !tbaa !47
  %.not.i2 = icmp eq ptr %16, null
  br i1 %.not.i2, label %_ZN8ImVectorI6ImVec4ED2Ev.exit, label %17

17:                                               ; preds = %_ZN8ImVectorIyED2Ev.exit
  invoke void @_ZN5ImGui7MemFreeEPv(ptr noundef nonnull %16)
          to label %_ZN8ImVectorI6ImVec4ED2Ev.exit unwind label %18

18:                                               ; preds = %17
  %19 = landingpad { ptr, i32 }
          catch ptr null
  %20 = extractvalue { ptr, i32 } %19, 0
  tail call void @__clang_call_terminate(ptr %20) #43
  unreachable

_ZN8ImVectorI6ImVec4ED2Ev.exit:                   ; preds = %_ZN8ImVectorIyED2Ev.exit, %17
  %21 = getelementptr inbounds nuw i8, ptr %0, i64 128
  invoke void @_ZN18ImDrawListSplitter15ClearFreeMemoryEv(ptr noundef nonnull align 8 dereferenceable(24) %21)
          to label %22 unwind label %29

22:                                               ; preds = %_ZN8ImVectorI6ImVec4ED2Ev.exit
  %23 = getelementptr inbounds nuw i8, ptr %0, i64 144
  %24 = load ptr, ptr %23, align 8, !tbaa !48
  %.not.i.i = icmp eq ptr %24, null
  br i1 %.not.i.i, label %_ZN18ImDrawListSplitterD2Ev.exit, label %25

25:                                               ; preds = %22
  invoke void @_ZN5ImGui7MemFreeEPv(ptr noundef nonnull %24)
          to label %_ZN18ImDrawListSplitterD2Ev.exit unwind label %26

26:                                               ; preds = %25
  %27 = landingpad { ptr, i32 }
          catch ptr null
  %28 = extractvalue { ptr, i32 } %27, 0
  tail call void @__clang_call_terminate(ptr %28) #43
  unreachable

29:                                               ; preds = %_ZN8ImVectorI6ImVec4ED2Ev.exit
  %30 = landingpad { ptr, i32 }
          catch ptr null
  %31 = extractvalue { ptr, i32 } %30, 0
  tail call void @__clang_call_terminate(ptr %31) #43
  unreachable

_ZN18ImDrawListSplitterD2Ev.exit:                 ; preds = %22, %25
  %32 = getelementptr inbounds nuw i8, ptr %0, i64 88
  %33 = load ptr, ptr %32, align 8, !tbaa !49
  %.not.i3 = icmp eq ptr %33, null
  br i1 %.not.i3, label %_ZN8ImVectorI6ImVec2ED2Ev.exit, label %34

34:                                               ; preds = %_ZN18ImDrawListSplitterD2Ev.exit
  invoke void @_ZN5ImGui7MemFreeEPv(ptr noundef nonnull %33)
          to label %_ZN8ImVectorI6ImVec2ED2Ev.exit unwind label %35

35:                                               ; preds = %34
  %36 = landingpad { ptr, i32 }
          catch ptr null
  %37 = extractvalue { ptr, i32 } %36, 0
  tail call void @__clang_call_terminate(ptr %37) #43
  unreachable

_ZN8ImVectorI6ImVec2ED2Ev.exit:                   ; preds = %_ZN18ImDrawListSplitterD2Ev.exit, %34
  %38 = getelementptr inbounds nuw i8, ptr %0, i64 40
  %39 = load ptr, ptr %38, align 8, !tbaa !44
  %.not.i4 = icmp eq ptr %39, null
  br i1 %.not.i4, label %_ZN8ImVectorI10ImDrawVertED2Ev.exit, label %40

40:                                               ; preds = %_ZN8ImVectorI6ImVec2ED2Ev.exit
  invoke void @_ZN5ImGui7MemFreeEPv(ptr noundef nonnull %39)
          to label %_ZN8ImVectorI10ImDrawVertED2Ev.exit unwind label %41

41:                                               ; preds = %40
  %42 = landingpad { ptr, i32 }
          catch ptr null
  %43 = extractvalue { ptr, i32 } %42, 0
  tail call void @__clang_call_terminate(ptr %43) #43
  unreachable

_ZN8ImVectorI10ImDrawVertED2Ev.exit:              ; preds = %_ZN8ImVectorI6ImVec2ED2Ev.exit, %40
  %44 = getelementptr inbounds nuw i8, ptr %0, i64 24
  %45 = load ptr, ptr %44, align 8, !tbaa !50
  %.not.i5 = icmp eq ptr %45, null
  br i1 %.not.i5, label %_ZN8ImVectorItED2Ev.exit, label %46

46:                                               ; preds = %_ZN8ImVectorI10ImDrawVertED2Ev.exit
  invoke void @_ZN5ImGui7MemFreeEPv(ptr noundef nonnull %45)
          to label %_ZN8ImVectorItED2Ev.exit unwind label %47

47:                                               ; preds = %46
  %48 = landingpad { ptr, i32 }
          catch ptr null
  %49 = extractvalue { ptr, i32 } %48, 0
  tail call void @__clang_call_terminate(ptr %49) #43
  unreachable

_ZN8ImVectorItED2Ev.exit:                         ; preds = %_ZN8ImVectorI10ImDrawVertED2Ev.exit, %46
  %50 = getelementptr inbounds nuw i8, ptr %0, i64 8
  %51 = load ptr, ptr %50, align 8, !tbaa !51
  %.not.i6 = icmp eq ptr %51, null
  br i1 %.not.i6, label %_ZN8ImVectorI9ImDrawCmdED2Ev.exit, label %52

52:                                               ; preds = %_ZN8ImVectorItED2Ev.exit
  invoke void @_ZN5ImGui7MemFreeEPv(ptr noundef nonnull %51)
          to label %_ZN8ImVectorI9ImDrawCmdED2Ev.exit unwind label %53

53:                                               ; preds = %52
  %54 = landingpad { ptr, i32 }
          catch ptr null
  %55 = extractvalue { ptr, i32 } %54, 0
  tail call void @__clang_call_terminate(ptr %55) #43
  unreachable

_ZN8ImVectorI9ImDrawCmdED2Ev.exit:                ; preds = %_ZN8ImVectorItED2Ev.exit, %52
  ret void

56:                                               ; preds = %1
  %57 = landingpad { ptr, i32 }
          catch ptr null
  %58 = extractvalue { ptr, i32 } %57, 0
  tail call void @__clang_call_terminate(ptr %58) #43
  unreachable
}